Certificate:
    Data:
        Version: 3 (0x2)
        Serial Number: 5 (0x5)
        Signature Algorithm: sha1WithRSAEncryption
        Issuer: C=US, ST=CA, O=M2Crypto, CN=localhost
        Validity
            Not Before: Dec 14 03:48:03 2006 GMT
            Not After : Dec 13 03:48:03 2009 GMT
        Subject: C=US, ST=CA, O=M2Crypto, CN=localhost/emailAddress=signer@example.com
        Subject Public Key Info:
            Public Key Algorithm: rsaEncryption
            RSA Public Key: (1024 bit)
                Modulus (1024 bit):
                    00:d1:85:16:87:28:14:0d:3e:39:fd:75:10:37:1d:
                    a5:fd:ca:69:e5:36:03:93:0f:a6:9b:15:fd:f7:fa:
                    c2:b7:3f:7b:26:1b:c5:02:93:95:29:a2:94:2c:38:
                    e1:fa:5a:29:ad:0e:c7:f2:0e:7e:ac:4f:9d:09:00:
                    64:e6:2e:60:7f:89:97:62:36:c4:10:49:2e:ef:4b:
                    4f:e2:db:8e:69:2c:81:6c:62:b0:fa:39:4a:0d:bf:
                    32:f3:41:45:cc:3d:5c:18:2c:ae:51:6d:e3:70:0a:
                    62:33:5d:7e:62:31:72:cc:1e:d5:5c:19:31:5a:60:
                    3a:1e:5e:18:66:6a:dc:89:95
                Exponent: 65537 (0x10001)
        X509v3 extensions:
            X509v3 Basic Constraints: 
                CA:FALSE
            Netscape Comment: 
                OpenSSL Generated Certificate
            X509v3 Subject Key Identifier: 
                F9:92:29:8C:8C:DC:8D:1F:BA:F6:66:FA:93:EE:F0:4D:C4:06:7E:99
            X509v3 Authority Key Identifier: 
                keyid:CD:06:38:23:C3:50:0C:F6:A8:5A:F0:A7:DB:51:03:21:00:41:DB:37

    Signature Algorithm: sha1WithRSAEncryption
        98:4e:8e:77:f6:48:c1:b4:e2:43:43:02:32:c0:62:9b:65:c8:
        46:bb:01:1d:02:7e:67:0d:a6:96:86:11:0e:fe:8b:96:ff:d2:
        a5:a1:90:ea:c0:2d:4d:c6:fe:92:82:e8:5d:76:97:2c:1e:3e:
        d5:30:0e:91:61:03:7e:a4:18:5c:67:97:f5:4b:ae:61:b4:73:
        4b:95:9b:ae:a4:3d:dc:7e:9b:e1:21:cd:f2:ed:6f:99:46:99:
        ea:8d:36:fe:84:f6:90:d9:46:c9:df:5c:55:26:28:04:60:f5:
        b9:18:19:ed:37:57:b9:dc:9c:9d:7c:51:2d:79:23:89:f3:53:
        b7:b5
-----BEGIN CERTIFICATE-----
MIICljCCAf+gAwIBAgIBBTANBgkqhkiG9w0BAQUFADBBMQswCQYDVQQGEwJVUzEL
MAkGA1UECBMCQ0ExETAPBgNVBAoTCE0yQ3J5cHRvMRIwEAYDVQQDEwlsb2NhbGhv
c3QwHhcNMDYxMjE0MDM0ODAzWhcNMDkxMjEzMDM0ODAzWjBkMQswCQYDVQQGEwJV
UzELMAkGA1UECBMCQ0ExETAPBgNVBAoTCE0yQ3J5cHRvMRIwEAYDVQQDEwlsb2Nh
bGhvc3QxITAfBgkqhkiG9w0BCQEWEnNpZ25lckBleGFtcGxlLmNvbTCBnzANBgkq
hkiG9w0BAQEFAAOBjQAwgYkCgYEA0YUWhygUDT45/XUQNx2l/cpp5TYDkw+mmxX9
9/rCtz97JhvFApOVKaKULDjh+loprQ7H8g5+rE+dCQBk5i5gf4mXYjbEEEku70tP
4tuOaSyBbGKw+jlKDb8y80FFzD1cGCyuUW3jcApiM11+YjFyzB7VXBkxWmA6Hl4Y
ZmrciZUCAwEAAaN7MHkwCQYDVR0TBAIwADAsBglghkgBhvhCAQ0EHxYdT3BlblNT
TCBHZW5lcmF0ZWQgQ2VydGlmaWNhdGUwHQYDVR0OBBYEFPmSKYyM3I0fuvZm+pPu
8E3EBn6ZMB8GA1UdIwQYMBaAFM0GOCPDUAz2qFrwp9tRAyEAQds3MA0GCSqGSIb3
DQEBBQUAA4GBAJhOjnf2SMG04kNDAjLAYptlyEa7AR0CfmcNppaGEQ7+i5b/0qWh
kOrALU3G/pKC6F12lywePtUwDpFhA36kGFxnl/VLrmG0c0uVm66kPdx+m+EhzfLt
b5lGmeqNNv6E9pDZRsnfXFUmKARg9bkYGe03V7ncnJ18US15I4nzU7e1
-----END CERTIFICATE-----
