Certificate:
    Data:
        Version: 3 (0x2)
        Serial Number: 1 (0x1)
        Signature Algorithm: sha1WithRSAEncryption
        Issuer: C=US, ST=CA, O=M2Crypto CA, CN=localhost
        Validity
            Not Before: Apr 22 04:36:56 2006 GMT
            Not After : Apr 22 04:36:56 2007 GMT
        Subject: C=US, ST=CA, O=M2Crypto Server, CN=localhost
        Subject Public Key Info:
            Public Key Algorithm: rsaEncryption
            RSA Public Key: (1024 bit)
                Modulus (1024 bit):
                    00:a5:cc:39:ad:ba:81:3d:bd:05:f4:61:50:9f:9c:
                    f6:ad:ec:29:d9:78:1e:24:61:f7:1b:36:bf:69:d8:
                    b3:45:ae:6f:3a:4c:4f:d6:13:6d:60:8d:f2:bb:2a:
                    c4:1b:79:fd:e2:f8:d6:3c:56:53:3b:27:f7:3f:70:
                    a4:64:99:63:46:2e:3f:ef:52:da:a9:04:5b:6e:d4:
                    40:57:c5:59:61:d3:3f:7d:b8:03:c1:9b:65:46:2a:
                    c5:9d:70:b7:ca:79:6e:dd:e4:3f:c2:f4:2f:2e:81:
                    32:c8:e9:a6:b6:a8:c8:1f:48:be:7a:66:56:98:fc:
                    3c:25:fc:d9:3d:73:07:30:71
                Exponent: 65537 (0x10001)
        X509v3 extensions:
            X509v3 Basic Constraints: 
                CA:FALSE
            Netscape Comment: 
                OpenSSL Generated Certificate
            X509v3 Subject Key Identifier: 
                F0:48:3A:32:88:8C:80:D7:22:AB:56:F8:86:B3:04:47:10:76:37:BE
            X509v3 Authority Key Identifier: 
                keyid:5C:F9:C5:9B:B0:02:37:3C:66:73:4D:0E:CB:5A:3D:BB:3A:46:22:DD

    Signature Algorithm: sha1WithRSAEncryption
        39:47:95:5c:ea:7e:db:b8:e0:80:f6:e5:d4:9f:83:bc:41:89:
        31:97:c8:a4:95:0d:5d:6d:cc:64:8d:19:71:17:75:4b:7f:fb:
        35:88:bf:68:e2:a2:be:c5:71:71:56:2a:92:31:25:2a:4b:98:
        4e:77:42:45:78:45:21:a5:76:99:92:39:32:7d:a2:4c:38:b0:
        f1:db:7f:d1:4d:23:99:35:1e:0e:a1:59:a3:ff:9c:51:ef:4c:
        11:c9:32:61:38:11:7d:57:2a:81:9a:96:1f:b3:88:f7:ab:5b:
        58:f7:79:9b:a8:e3:b7:09:90:8e:c9:7d:44:4f:af:85:dc:c8:
        29:4d
-----BEGIN CERTIFICATE-----
MIICfTCCAeagAwIBAgIBATANBgkqhkiG9w0BAQUFADBEMQswCQYDVQQGEwJVUzEL
MAkGA1UECBMCQ0ExFDASBgNVBAoTC00yQ3J5cHRvIENBMRIwEAYDVQQDEwlsb2Nh
bGhvc3QwHhcNMDYwNDIyMDQzNjU2WhcNMDcwNDIyMDQzNjU2WjBIMQswCQYDVQQG
EwJVUzELMAkGA1UECBMCQ0ExGDAWBgNVBAoTD00yQ3J5cHRvIFNlcnZlcjESMBAG
A1UEAxMJbG9jYWxob3N0MIGfMA0GCSqGSIb3DQEBAQUAA4GNADCBiQKBgQClzDmt
uoE9vQX0YVCfnPat7CnZeB4kYfcbNr9p2LNFrm86TE/WE21gjfK7KsQbef3i+NY8
VlM7J/c/cKRkmWNGLj/vUtqpBFtu1EBXxVlh0z99uAPBm2VGKsWdcLfKeW7d5D/C
9C8ugTLI6aa2qMgfSL56ZlaY/Dwl/Nk9cwcwcQIDAQABo3sweTAJBgNVHRMEAjAA
MCwGCWCGSAGG+EIBDQQfFh1PcGVuU1NMIEdlbmVyYXRlZCBDZXJ0aWZpY2F0ZTAd
BgNVHQ4EFgQU8Eg6MoiMgNciq1b4hrMERxB2N74wHwYDVR0jBBgwFoAUXPnFm7AC
Nzxmc00Oy1o9uzpGIt0wDQYJKoZIhvcNAQEFBQADgYEAOUeVXOp+27jggPbl1J+D
vEGJMZfIpJUNXW3MZI0ZcRd1S3/7NYi/aOKivsVxcVYqkjElKkuYTndCRXhFIaV2
mZI5Mn2iTDiw8dt/0U0jmTUeDqFZo/+cUe9MEckyYTgRfVcqgZqWH7OI96tbWPd5
m6jjtwmQjsl9RE+vhdzIKU0=
-----END CERTIFICATE-----
-----BEGIN RSA PRIVATE KEY-----
MIICXQIBAAKBgQClzDmtuoE9vQX0YVCfnPat7CnZeB4kYfcbNr9p2LNFrm86TE/W
E21gjfK7KsQbef3i+NY8VlM7J/c/cKRkmWNGLj/vUtqpBFtu1EBXxVlh0z99uAPB
m2VGKsWdcLfKeW7d5D/C9C8ugTLI6aa2qMgfSL56ZlaY/Dwl/Nk9cwcwcQIDAQAB
AoGBAIwzbZbePsnxXOaxoBbJCcQ7D4yJSZvkh6womKauC7Lh9carn1tc5EIg5uCl
Il5Fw466c5dkPE+q1SZ9X1Z+avYh4ypHjpcr1Lfvwo0wfOBx5MBj6ppMdwgrMXuo
jRChK3gBZXmKaIH19h/sGp/lZRW2HiX63aN11KDmtfwo6Bq9AkEA2OftYJUqceK3
/E8q6OE1oQLm+oK6CPZ29A5TRNOadRu1opDR/y59GcUQ5ebJNH8DXyF82lSi3DKt
SNoSOF32cwJBAMOuKGUAwnq1yH3q+MAF7CZjGou7Ar6VRseyLnD5nttynT85QRW8
N/WCosKLhV7wi9kKJmHGUJfRAqdo14D8IIsCQQCVjrU6FyABDpZVvjCUClT0BBBH
QsQLUgWLGiWIG28wuD5xLPHexas0jZCtNIgfTkSA35I66Iiy065vwQ03GHLJAkAG
eGC/jjngAtjBSR62grufPVGoYyOhF6CCg+LDO43EJdMLPyJmzJVxGcO1+RUM4ZlO
MOa5/uu1SWT0EiRmEHAnAkBusVcHcd6d4uaoiCybIhF4hL4GsbKoImIciakNlteA
c1RZZHc2jzO/Ihoz50H1njXwY86YbjncOXw8shtayd8j
-----END RSA PRIVATE KEY-----
