Certificate:
    Data:
        Version: 3 (0x2)
        Serial Number: 0 (0x0)
        Signature Algorithm: sha1WithRSAEncryption
        Issuer: C=US, ST=CA, O=M2Crypto, CN=localhost
        Validity
            Not Before: Dec 14 03:22:06 2006 GMT
            Not After : Dec 13 03:22:06 2009 GMT
        Subject: C=US, ST=CA, O=M2Crypto, CN=localhost
        Subject Public Key Info:
            Public Key Algorithm: rsaEncryption
            RSA Public Key: (1024 bit)
                Modulus (1024 bit):
                    00:c8:ee:96:31:80:55:c0:24:cf:e8:95:22:86:ac:
                    23:86:1a:5a:44:1c:c8:1d:99:5a:9b:5a:8f:4b:08:
                    6d:c1:c7:5b:16:b1:92:70:1c:a4:d3:d5:9e:8d:b8:
                    ae:03:79:ae:1d:a4:6e:4b:ef:06:16:68:0d:79:a6:
                    dc:7b:fc:a8:7c:f4:4c:fb:3a:e0:c9:8b:01:be:be:
                    32:0f:b4:b7:55:32:fc:70:a5:0d:17:3d:5c:f8:50:
                    8d:9a:44:3c:12:06:72:58:98:5f:3a:54:6c:90:82:
                    15:76:c9:16:1c:13:b7:31:7e:65:f0:d0:75:23:cf:
                    eb:ba:d5:64:16:2a:a5:13:bf
                Exponent: 65537 (0x10001)
        X509v3 extensions:
            X509v3 Basic Constraints: 
                CA:TRUE
            Netscape Comment: 
                OpenSSL Generated Certificate
            X509v3 Subject Key Identifier: 
                CD:06:38:23:C3:50:0C:F6:A8:5A:F0:A7:DB:51:03:21:00:41:DB:37
            X509v3 Authority Key Identifier: 
                keyid:CD:06:38:23:C3:50:0C:F6:A8:5A:F0:A7:DB:51:03:21:00:41:DB:37

    Signature Algorithm: sha1WithRSAEncryption
        9c:6a:71:13:dc:41:5e:dc:27:c4:aa:d8:76:bb:ac:f7:3e:d6:
        02:d1:55:c0:b0:8b:07:c3:5e:4d:0d:c0:3b:dc:a9:98:04:e5:
        23:fe:61:8a:16:93:d8:d3:bf:30:f1:ca:fb:ba:33:78:58:cf:
        d6:8d:49:94:cc:66:01:42:61:27:79:95:f5:36:89:bb:9a:a5:
        1d:e4:ac:fa:d3:53:50:10:58:40:90:1d:b7:ca:9e:0e:cb:16:
        a1:49:5c:46:85:13:5a:61:39:44:c2:7c:7e:b2:d6:96:5c:3a:
        bd:07:03:24:f2:9b:87:ec:f4:00:a5:11:50:a7:73:3c:96:34:
        3b:01
-----BEGIN CERTIFICATE-----
MIICdjCCAd+gAwIBAgIBADANBgkqhkiG9w0BAQUFADBBMQswCQYDVQQGEwJVUzEL
MAkGA1UECBMCQ0ExETAPBgNVBAoTCE0yQ3J5cHRvMRIwEAYDVQQDEwlsb2NhbGhv
c3QwHhcNMDYxMjE0MDMyMjA2WhcNMDkxMjEzMDMyMjA2WjBBMQswCQYDVQQGEwJV
UzELMAkGA1UECBMCQ0ExETAPBgNVBAoTCE0yQ3J5cHRvMRIwEAYDVQQDEwlsb2Nh
bGhvc3QwgZ8wDQYJKoZIhvcNAQEBBQADgY0AMIGJAoGBAMjuljGAVcAkz+iVIoas
I4YaWkQcyB2ZWptaj0sIbcHHWxaxknAcpNPVno24rgN5rh2kbkvvBhZoDXmm3Hv8
qHz0TPs64MmLAb6+Mg+0t1Uy/HClDRc9XPhQjZpEPBIGcliYXzpUbJCCFXbJFhwT
tzF+ZfDQdSPP67rVZBYqpRO/AgMBAAGjfjB8MAwGA1UdEwQFMAMBAf8wLAYJYIZI
AYb4QgENBB8WHU9wZW5TU0wgR2VuZXJhdGVkIENlcnRpZmljYXRlMB0GA1UdDgQW
BBTNBjgjw1AM9qha8KfbUQMhAEHbNzAfBgNVHSMEGDAWgBTNBjgjw1AM9qha8Kfb
UQMhAEHbNzANBgkqhkiG9w0BAQUFAAOBgQCcanET3EFe3CfEqth2u6z3PtYC0VXA
sIsHw15NDcA73KmYBOUj/mGKFpPY078w8cr7ujN4WM/WjUmUzGYBQmEneZX1Nom7
mqUd5Kz601NQEFhAkB23yp4OyxahSVxGhRNaYTlEwnx+staWXDq9BwMk8puH7PQA
pRFQp3M8ljQ7AQ==
-----END CERTIFICATE-----
