Certificate:
    Data:
        Version: 3 (0x2)
        Serial Number: 4 (0x4)
        Signature Algorithm: sha1WithRSAEncryption
        Issuer: C=US, ST=CA, O=M2Crypto, CN=localhost
        Validity
            Not Before: Dec 14 03:47:02 2006 GMT
            Not After : Dec 13 03:47:02 2009 GMT
        Subject: C=US, ST=CA, O=M2Crypto, CN=localhost/emailAddress=recipient@example.com
        Subject Public Key Info:
            Public Key Algorithm: rsaEncryption
            RSA Public Key: (1024 bit)
                Modulus (1024 bit):
                    00:cd:6c:81:f5:c3:3c:d7:3f:d9:40:27:93:73:93:
                    1a:c3:0c:37:32:12:31:89:da:4a:ae:da:7d:2f:b3:
                    78:95:ac:35:6d:33:3d:3b:5a:a8:7e:d9:cf:39:26:
                    6a:80:49:06:06:fd:f7:fa:4c:71:4a:c4:ef:05:6e:
                    05:03:36:14:27:12:75:65:6b:b3:a8:7b:69:fb:2a:
                    4e:e1:ec:65:6e:01:ff:05:98:ad:04:73:73:08:8b:
                    58:5d:70:b3:8b:f7:cf:10:8d:d2:79:2a:e3:4b:8d:
                    79:e0:52:bf:9c:75:92:17:8b:ee:18:5b:3a:73:4b:
                    0e:ea:4a:fa:e7:f4:f6:40:2f
                Exponent: 65537 (0x10001)
        X509v3 extensions:
            X509v3 Basic Constraints: 
                CA:FALSE
            Netscape Comment: 
                OpenSSL Generated Certificate
            X509v3 Subject Key Identifier: 
                F4:33:02:B5:35:2D:52:7B:51:1C:F9:08:C7:D2:A8:8D:BE:CF:13:9E
            X509v3 Authority Key Identifier: 
                keyid:CD:06:38:23:C3:50:0C:F6:A8:5A:F0:A7:DB:51:03:21:00:41:DB:37

    Signature Algorithm: sha1WithRSAEncryption
        69:61:e1:72:56:64:75:30:7c:a2:7a:cb:ef:02:f9:6d:cd:41:
        d4:1d:a2:7b:14:bc:02:d3:d1:09:40:15:fc:08:ae:22:aa:73:
        1f:85:de:41:a2:f9:90:23:e9:17:76:e8:a6:e8:13:b9:7f:67:
        bb:f9:63:dc:b2:f0:e9:b0:eb:75:57:e5:b1:9e:18:93:e2:58:
        32:e4:1a:f1:6b:7a:7e:e8:c7:50:a0:08:68:b7:b6:83:6f:c1:
        d6:af:91:e6:65:b3:c2:d3:12:a8:aa:6f:be:ea:da:e4:2b:5c:
        60:34:93:4e:e3:74:0e:d2:0e:9b:3e:0e:4a:37:e6:70:83:c2:
        d7:c9
-----BEGIN CERTIFICATE-----
MIICmTCCAgKgAwIBAgIBBDANBgkqhkiG9w0BAQUFADBBMQswCQYDVQQGEwJVUzEL
MAkGA1UECBMCQ0ExETAPBgNVBAoTCE0yQ3J5cHRvMRIwEAYDVQQDEwlsb2NhbGhv
c3QwHhcNMDYxMjE0MDM0NzAyWhcNMDkxMjEzMDM0NzAyWjBnMQswCQYDVQQGEwJV
UzELMAkGA1UECBMCQ0ExETAPBgNVBAoTCE0yQ3J5cHRvMRIwEAYDVQQDEwlsb2Nh
bGhvc3QxJDAiBgkqhkiG9w0BCQEWFXJlY2lwaWVudEBleGFtcGxlLmNvbTCBnzAN
BgkqhkiG9w0BAQEFAAOBjQAwgYkCgYEAzWyB9cM81z/ZQCeTc5Mawww3MhIxidpK
rtp9L7N4law1bTM9O1qoftnPOSZqgEkGBv33+kxxSsTvBW4FAzYUJxJ1ZWuzqHtp
+ypO4exlbgH/BZitBHNzCItYXXCzi/fPEI3SeSrjS4154FK/nHWSF4vuGFs6c0sO
6kr65/T2QC8CAwEAAaN7MHkwCQYDVR0TBAIwADAsBglghkgBhvhCAQ0EHxYdT3Bl
blNTTCBHZW5lcmF0ZWQgQ2VydGlmaWNhdGUwHQYDVR0OBBYEFPQzArU1LVJ7URz5
CMfSqI2+zxOeMB8GA1UdIwQYMBaAFM0GOCPDUAz2qFrwp9tRAyEAQds3MA0GCSqG
SIb3DQEBBQUAA4GBAGlh4XJWZHUwfKJ6y+8C+W3NQdQdonsUvALT0QlAFfwIriKq
cx+F3kGi+ZAj6Rd26KboE7l/Z7v5Y9yy8Omw63VX5bGeGJPiWDLkGvFren7ox1Cg
CGi3toNvwdavkeZls8LTEqiqb77q2uQrXGA0k07jdA7SDps+Dko35nCDwtfJ
-----END CERTIFICATE-----
