Certificate:
    Data:
        Version: 3 (0x2)
        Serial Number: 1 (0x1)
        Signature Algorithm: sha1WithRSAEncryption
        Issuer: C=US, ST=CA, O=M2Crypto, CN=localhost
        Validity
            Not Before: Dec 14 03:24:08 2006 GMT
            Not After : Dec 13 03:24:08 2009 GMT
        Subject: C=US, ST=CA, O=M2Crypto, CN=localhost
        Subject Public Key Info:
            Public Key Algorithm: rsaEncryption
            RSA Public Key: (1024 bit)
                Modulus (1024 bit):
                    00:d4:a9:64:75:ed:bb:14:c5:7b:30:f2:f3:3e:3a:
                    38:87:18:f7:f0:89:2e:94:1d:1f:76:22:c5:91:dd:
                    55:87:ba:2d:e3:15:a3:bd:a6:bc:b2:6c:44:b1:dd:
                    ff:96:b3:f8:72:3f:3a:41:3e:92:5d:fd:ca:67:e5:
                    92:d6:8a:9f:5d:87:dc:35:ab:84:24:4c:f0:fb:9e:
                    38:e0:25:14:09:ac:cd:62:5b:52:c4:15:dd:81:60:
                    10:ed:84:3f:8e:72:41:64:95:2f:be:14:b6:88:ab:
                    95:4f:ea:d7:71:73:93:fd:51:13:23:88:95:7c:7c:
                    2a:ea:58:31:b1:a0:b9:7d:cf
                Exponent: 65537 (0x10001)
        X509v3 extensions:
            X509v3 Basic Constraints: 
                CA:FALSE
            Netscape Comment: 
                OpenSSL Generated Certificate
            X509v3 Subject Key Identifier: 
                FE:0E:47:67:E7:BC:3B:95:FF:98:93:97:C8:97:BC:E8:6C:17:7F:50
            X509v3 Authority Key Identifier: 
                keyid:CD:06:38:23:C3:50:0C:F6:A8:5A:F0:A7:DB:51:03:21:00:41:DB:37

    Signature Algorithm: sha1WithRSAEncryption
        95:0f:12:23:a0:59:d0:23:7e:f5:a0:e9:78:7e:29:89:51:15:
        d6:5f:76:2d:50:3c:0a:93:46:b2:7f:8b:b7:8e:7d:56:18:1a:
        a2:af:f6:9c:13:be:01:f7:28:7b:b9:93:6e:21:d3:e8:ea:fb:
        aa:0b:68:b9:77:32:6f:8b:2d:86:c8:30:80:9c:ea:53:86:0d:
        27:7e:09:41:d0:98:13:e3:5e:49:77:fa:fa:ed:2e:c8:d9:7f:
        0d:9f:a7:01:a1:1c:1a:b4:83:6d:af:8b:cc:43:85:f4:65:73:
        2d:b3:23:d8:fb:24:2b:f1:36:7f:2b:38:2c:d0:65:95:01:b8:
        f3:dc
-----BEGIN CERTIFICATE-----
MIICczCCAdygAwIBAgIBATANBgkqhkiG9w0BAQUFADBBMQswCQYDVQQGEwJVUzEL
MAkGA1UECBMCQ0ExETAPBgNVBAoTCE0yQ3J5cHRvMRIwEAYDVQQDEwlsb2NhbGhv
c3QwHhcNMDYxMjE0MDMyNDA4WhcNMDkxMjEzMDMyNDA4WjBBMQswCQYDVQQGEwJV
UzELMAkGA1UECBMCQ0ExETAPBgNVBAoTCE0yQ3J5cHRvMRIwEAYDVQQDEwlsb2Nh
bGhvc3QwgZ8wDQYJKoZIhvcNAQEBBQADgY0AMIGJAoGBANSpZHXtuxTFezDy8z46
OIcY9/CJLpQdH3YixZHdVYe6LeMVo72mvLJsRLHd/5az+HI/OkE+kl39ymflktaK
n12H3DWrhCRM8PueOOAlFAmszWJbUsQV3YFgEO2EP45yQWSVL74UtoirlU/q13Fz
k/1REyOIlXx8KupYMbGguX3PAgMBAAGjezB5MAkGA1UdEwQCMAAwLAYJYIZIAYb4
QgENBB8WHU9wZW5TU0wgR2VuZXJhdGVkIENlcnRpZmljYXRlMB0GA1UdDgQWBBT+
Dkdn57w7lf+Yk5fIl7zobBd/UDAfBgNVHSMEGDAWgBTNBjgjw1AM9qha8KfbUQMh
AEHbNzANBgkqhkiG9w0BAQUFAAOBgQCVDxIjoFnQI371oOl4fimJURXWX3YtUDwK
k0ayf4u3jn1WGBqir/acE74B9yh7uZNuIdPo6vuqC2i5dzJviy2GyDCAnOpThg0n
fglB0JgT415Jd/r67S7I2X8Nn6cBoRwatINtr4vMQ4X0ZXMtsyPY+yQr8TZ/Kzgs
0GWVAbjz3A==
-----END CERTIFICATE-----
-----BEGIN RSA PRIVATE KEY-----
MIICWwIBAAKBgQDUqWR17bsUxXsw8vM+OjiHGPfwiS6UHR92IsWR3VWHui3jFaO9
pryybESx3f+Ws/hyPzpBPpJd/cpn5ZLWip9dh9w1q4QkTPD7njjgJRQJrM1iW1LE
Fd2BYBDthD+OckFklS++FLaIq5VP6tdxc5P9URMjiJV8fCrqWDGxoLl9zwIDAQAB
AoGAJyCLhU8aLrYu9lCdBIP9xo2HgNAcq8+37Cp1o2LPy8srii5/E/PLoCBfe0JX
NkkimxKbC0oR8A0z4m3Q2Hxk2aCb51nDrLOPkQ2ZBD8MhOQBIh1hZlALGPSk4I6p
LGxPuX6JcZA6N85Zi8dlPMf2vj6m1oRgYSPxG9hYRds8a0ECQQD2LLlqkyg+P5QJ
h/K7Oo+gkbVNGO4lxp59b2G72ZnPNt2JXIhKm9jjN4DXMxZ3a2iCWg5Jl1GYNGms
PZQRtgfxAkEA3SZAOGKEP1kdP6OuyA4hVbDd9dImwPhAF/dVyBtT7mgzmppaJLi6
N1T5ZArag35Dl3Upjy73SwLyxvTgIJuhvwJAEKXVpC9veUYzbLGU6LR9Ig64hA47
jLJx5Wmy4lFE5Y6ATNnFHcaMVFFclTEPQ+QvnSEZ9kAVdIWW398KNGhrAQJAHG7Q
ju9LpYFlm0sGK751VrkYsIRGa0T/qJUqOEIbNmm7SMNTl6kQeBC6x7wFgCZ5tj1g
DIKzVLeaUy4kqsyXrQJAG3gKIjrQ2GBFZMLp7TVln0+sN98BKYGqJHbkJferE4jm
ioFZLk5ow5LytUroMIDAORj7B0V7mnsDzvr0kMIoaQ==
-----END RSA PRIVATE KEY-----
