Certificate:
    Data:
        Version: 3 (0x2)
        Serial Number: 2 (0x2)
        Signature Algorithm: sha1WithRSAEncryption
        Issuer: C=US, ST=CA, O=M2Crypto, CN=localhost
        Validity
            Not Before: Dec 14 03:25:36 2006 GMT
            Not After : Dec 13 03:25:36 2009 GMT
        Subject: C=US, ST=CA, O=M2Crypto, CN=localhost
        Subject Public Key Info:
            Public Key Algorithm: rsaEncryption
            RSA Public Key: (1024 bit)
                Modulus (1024 bit):
                    00:ed:20:bf:09:50:eb:e8:83:4e:de:60:d8:30:6e:
                    ce:15:7d:95:f7:f3:06:dc:fa:d2:95:cb:5e:54:32:
                    bb:9d:23:e1:33:80:32:72:ae:78:a4:82:5d:ad:03:
                    57:62:8e:b4:7d:71:f8:0f:82:65:79:a4:0d:16:78:
                    65:38:24:fd:06:39:6b:ec:c2:0e:fc:78:40:10:01:
                    7d:78:33:18:b1:7f:2f:bd:65:ae:ca:a7:75:16:f2:
                    3e:1a:dc:79:50:af:e4:61:0b:c1:52:3a:55:51:87:
                    72:6b:1a:33:02:47:e3:cc:2c:49:e7:fe:cc:10:e9:
                    8f:5c:60:c6:2e:c1:5a:c8:bb
                Exponent: 65537 (0x10001)
        X509v3 extensions:
            X509v3 Basic Constraints: 
                CA:FALSE
            Netscape Comment: 
                OpenSSL Generated Certificate
            X509v3 Subject Key Identifier: 
                77:DE:BA:B7:DE:8D:9B:E0:4E:7D:1E:67:77:03:B3:CE:73:EB:2C:BF
            X509v3 Authority Key Identifier: 
                keyid:CD:06:38:23:C3:50:0C:F6:A8:5A:F0:A7:DB:51:03:21:00:41:DB:37

    Signature Algorithm: sha1WithRSAEncryption
        a5:b7:0b:21:36:79:59:1d:f2:c3:43:ff:79:09:54:bf:44:87:
        05:3f:b4:dd:9a:ea:63:98:34:d5:0b:1c:e4:33:ea:37:7b:ec:
        6b:81:b4:1c:ef:e6:da:dc:4b:37:4b:2f:96:73:de:94:75:62:
        1f:ac:60:be:27:7e:3f:16:98:05:1a:4c:ec:7c:87:59:9f:94:
        f0:9f:3b:84:f1:c1:b6:e9:54:03:e6:71:e0:4c:61:f5:93:a3:
        be:56:6c:22:47:c8:e4:1c:fd:55:8b:a7:22:4d:f5:d2:32:59:
        9b:a0:ef:2f:59:22:0b:0c:c7:70:b9:3b:5d:81:63:6d:f2:83:
        e5:97
-----BEGIN CERTIFICATE-----
MIICczCCAdygAwIBAgIBAjANBgkqhkiG9w0BAQUFADBBMQswCQYDVQQGEwJVUzEL
MAkGA1UECBMCQ0ExETAPBgNVBAoTCE0yQ3J5cHRvMRIwEAYDVQQDEwlsb2NhbGhv
c3QwHhcNMDYxMjE0MDMyNTM2WhcNMDkxMjEzMDMyNTM2WjBBMQswCQYDVQQGEwJV
UzELMAkGA1UECBMCQ0ExETAPBgNVBAoTCE0yQ3J5cHRvMRIwEAYDVQQDEwlsb2Nh
bGhvc3QwgZ8wDQYJKoZIhvcNAQEBBQADgY0AMIGJAoGBAO0gvwlQ6+iDTt5g2DBu
zhV9lffzBtz60pXLXlQyu50j4TOAMnKueKSCXa0DV2KOtH1x+A+CZXmkDRZ4ZTgk
/QY5a+zCDvx4QBABfXgzGLF/L71lrsqndRbyPhrceVCv5GELwVI6VVGHcmsaMwJH
48wsSef+zBDpj1xgxi7BWsi7AgMBAAGjezB5MAkGA1UdEwQCMAAwLAYJYIZIAYb4
QgENBB8WHU9wZW5TU0wgR2VuZXJhdGVkIENlcnRpZmljYXRlMB0GA1UdDgQWBBR3
3rq33o2b4E59Hmd3A7POc+ssvzAfBgNVHSMEGDAWgBTNBjgjw1AM9qha8KfbUQMh
AEHbNzANBgkqhkiG9w0BAQUFAAOBgQCltwshNnlZHfLDQ/95CVS/RIcFP7Tdmupj
mDTVCxzkM+o3e+xrgbQc7+ba3Es3Sy+Wc96UdWIfrGC+J34/FpgFGkzsfIdZn5Tw
nzuE8cG26VQD5nHgTGH1k6O+VmwiR8jkHP1Vi6ciTfXSMlmboO8vWSILDMdwuTtd
gWNt8oPllw==
-----END CERTIFICATE-----
-----BEGIN RSA PRIVATE KEY-----
MIICXQIBAAKBgQDtIL8JUOvog07eYNgwbs4VfZX38wbc+tKVy15UMrudI+EzgDJy
rnikgl2tA1dijrR9cfgPgmV5pA0WeGU4JP0GOWvswg78eEAQAX14Mxixfy+9Za7K
p3UW8j4a3HlQr+RhC8FSOlVRh3JrGjMCR+PMLEnn/swQ6Y9cYMYuwVrIuwIDAQAB
AoGBANa/yULOnlc8U7jhS+jQ8KJV0fNzjMuj/ALc4tit+Wsei1zwxL9HcsrJpbyC
Qilnw9230Ud6eBvpjlDDSCfIl7vEx5+5dtYPnpJNUsWICCbvRKfBSHSNUZfDbiHf
BgtDFGjkD3SxjlpYCBFXt/9YHWM9qxiH5NvfIpI/lCuAMJYBAkEA/1K6KFX6Jzd0
M++eNKYrcWAdBsp081MiOZ90W78ChNj0V+spwX6iK63qYxJbnE9WeuvdN/jx6iXN
FhlOMDJJ2wJBAO3Bq8fl3m/crJcvbknjMLBIx/4RM7C5e/9duMTO9u6gRDC/LIE+
tClptiqCg5yVev5bfxVfIVOuxdYe8NXF4qECQAEvMQ3e2Do2V6OmCOXVn333JCtT
5Rb727zIsJF8YVacawW9YYQ0QixRsjSjcSlYdN49GdmYngaoBjuEAojWsuECQEQd
sHFc0hWKS4gk9pwEkvZuY53On9iJy5Sl7UG1admD4QV2P/HnXQZgWuhi7AH4cXxe
ClK9JncrI1LtGmKkhwECQQDPrH/sGRTPZFjc0vRMwYYJM4QLRWCi3eKL8Pc8DSVk
rillryZWYPMbkTBKitZmXlBEfrj3CGD1sp7Pa4SauLRi
-----END RSA PRIVATE KEY-----
