Certificate:
    Data:
        Version: 3 (0x2)
        Serial Number: 0 (0x0)
        Signature Algorithm: sha1WithRSAEncryption
        Issuer: C=US, ST=CA, O=M2Crypto CA, CN=localhost
        Validity
            Not Before: Apr 22 04:35:56 2006 GMT
            Not After : Apr 21 04:35:56 2009 GMT
        Subject: C=US, ST=CA, O=M2Crypto CA, CN=localhost
        Subject Public Key Info:
            Public Key Algorithm: rsaEncryption
            RSA Public Key: (1024 bit)
                Modulus (1024 bit):
                    00:d8:80:02:8f:b5:7d:9f:9b:79:76:67:a5:66:64:
                    c0:30:0c:71:65:f1:c6:78:01:a0:29:d4:3a:2c:e5:
                    ee:58:4d:db:53:c5:74:6e:4e:f7:b6:a5:8e:ef:ab:
                    e8:7c:f5:5d:2d:18:ba:95:b8:15:43:6e:5a:78:c2:
                    91:05:08:b2:7e:cf:c4:d3:bb:ac:c7:43:27:fb:8f:
                    43:0d:7b:d0:d1:32:51:86:11:6e:3e:aa:68:19:88:
                    b9:cf:d5:72:f0:a4:73:d1:69:c4:65:14:0e:12:64:
                    7e:1f:df:18:09:0b:6a:4b:cd:bf:ae:59:82:15:1c:
                    90:0f:c3:e5:cb:b3:ed:86:4d
                Exponent: 65537 (0x10001)
        X509v3 extensions:
            X509v3 Basic Constraints: 
                CA:TRUE
            Netscape Comment: 
                OpenSSL Generated Certificate
            X509v3 Subject Key Identifier: 
                5C:F9:C5:9B:B0:02:37:3C:66:73:4D:0E:CB:5A:3D:BB:3A:46:22:DD
            X509v3 Authority Key Identifier: 
                keyid:5C:F9:C5:9B:B0:02:37:3C:66:73:4D:0E:CB:5A:3D:BB:3A:46:22:DD

    Signature Algorithm: sha1WithRSAEncryption
        6b:9e:71:4a:ad:d2:1c:b7:58:1a:6e:8b:89:92:8d:4e:62:61:
        06:2e:e8:11:f8:9c:a0:e2:11:7c:b6:e2:be:ef:b9:b1:35:20:
        d1:81:62:c5:ca:3c:4f:c9:88:72:f7:50:d8:e8:e0:06:43:ee:
        c5:5c:38:9b:e7:24:46:a6:ee:8d:b0:70:4e:75:96:00:db:d6:
        59:f9:58:74:67:9f:ca:9c:12:fc:77:a7:0e:5a:38:22:5b:de:
        c9:33:35:bd:d0:4c:9f:6a:0f:71:7b:db:cb:fd:da:bc:39:4f:
        23:1e:74:5b:ff:8d:73:72:16:a9:9f:57:54:96:3e:2c:f0:65:
        af:df
-----BEGIN CERTIFICATE-----
MIICfDCCAeWgAwIBAgIBADANBgkqhkiG9w0BAQUFADBEMQswCQYDVQQGEwJVUzEL
MAkGA1UECBMCQ0ExFDASBgNVBAoTC00yQ3J5cHRvIENBMRIwEAYDVQQDEwlsb2Nh
bGhvc3QwHhcNMDYwNDIyMDQzNTU2WhcNMDkwNDIxMDQzNTU2WjBEMQswCQYDVQQG
EwJVUzELMAkGA1UECBMCQ0ExFDASBgNVBAoTC00yQ3J5cHRvIENBMRIwEAYDVQQD
Ewlsb2NhbGhvc3QwgZ8wDQYJKoZIhvcNAQEBBQADgY0AMIGJAoGBANiAAo+1fZ+b
eXZnpWZkwDAMcWXxxngBoCnUOizl7lhN21PFdG5O97alju+r6Hz1XS0YupW4FUNu
WnjCkQUIsn7PxNO7rMdDJ/uPQw170NEyUYYRbj6qaBmIuc/VcvCkc9FpxGUUDhJk
fh/fGAkLakvNv65ZghUckA/D5cuz7YZNAgMBAAGjfjB8MAwGA1UdEwQFMAMBAf8w
LAYJYIZIAYb4QgENBB8WHU9wZW5TU0wgR2VuZXJhdGVkIENlcnRpZmljYXRlMB0G
A1UdDgQWBBRc+cWbsAI3PGZzTQ7LWj27OkYi3TAfBgNVHSMEGDAWgBRc+cWbsAI3
PGZzTQ7LWj27OkYi3TANBgkqhkiG9w0BAQUFAAOBgQBrnnFKrdIct1gabouJko1O
YmEGLugR+Jyg4hF8tuK+77mxNSDRgWLFyjxPyYhy91DY6OAGQ+7FXDib5yRGpu6N
sHBOdZYA29ZZ+Vh0Z5/KnBL8d6cOWjgiW97JMzW90Eyfag9xe9vL/dq8OU8jHnRb
/41zchapn1dUlj4s8GWv3w==
-----END CERTIFICATE-----
